target datalayout = "e-m:e-p270:32:32-p271:32:32-p272:64:64-i64:64-i128:128-f80:128-n8:16:32:64-S128"
target triple = "x86_64-pc-linux-gnu"

; Function Attrs: inlinehint nounwind uwtable
define internal i32 @CompareWords(i64 noundef %0, i64 noundef %1) #5 {
  %3 = alloca i32, align 4
  %4 = alloca i64, align 8
  %5 = alloca i64, align 8
  store i64 %0, ptr %4, align 8, !tbaa !18
  store i64 %1, ptr %5, align 8, !tbaa !18
  %6 = load i64, ptr %4, align 8, !tbaa !18
  %7 = load i64, ptr %5, align 8, !tbaa !18
  %8 = icmp ugt i64 %6, %7
  br i1 %8, label %9, label %10

9:                                                ; preds = %2
  store i32 1, ptr %3, align 4
  br label %16

10:                                               ; preds = %2
  %11 = load i64, ptr %4, align 8, !tbaa !18
  %12 = load i64, ptr %5, align 8, !tbaa !18
  %13 = icmp ult i64 %11, %12
  br i1 %13, label %14, label %15

14:                                               ; preds = %10
  store i32 -1, ptr %3, align 4
  br label %16

15:                                               ; preds = %10
  store i32 0, ptr %3, align 4
  br label %16

16:                                               ; preds = %15, %14, %9
  %17 = load i32, ptr %3, align 4
  ret i32 %17
}

; Function Attrs: nounwind uwtable
define i32 @minTemp0_fast_moreThen5(ptr noundef %0, i32 noundef %1, i32 noundef %2, ptr noundef %3) #0 {
  %5 = alloca i32, align 4
  %6 = alloca ptr, align 8
  %7 = alloca i32, align 4
  %8 = alloca i32, align 4
  %9 = alloca ptr, align 8
  %10 = alloca i32, align 4
  %11 = alloca i32, align 4
  %12 = alloca i32, align 4
  %13 = alloca i32, align 4
  %14 = alloca i32, align 4
  %15 = alloca i32, align 4
  %16 = alloca i32, align 4
  store ptr %0, ptr %6, align 8, !tbaa !3
  store i32 %1, ptr %7, align 4, !tbaa !8
  store i32 %2, ptr %8, align 4, !tbaa !8
  store ptr %3, ptr %9, align 8, !tbaa !12
  call void @llvm.lifetime.start.p0(i64 4, ptr %10) #7
  call void @llvm.lifetime.start.p0(i64 4, ptr %11) #7
  call void @llvm.lifetime.start.p0(i64 4, ptr %12) #7
  call void @llvm.lifetime.start.p0(i64 4, ptr %13) #7
  %17 = load i32, ptr %7, align 4, !tbaa !8
  %18 = sub nsw i32 %17, 6
  %19 = shl i32 1, %18
  store i32 %19, ptr %13, align 4, !tbaa !8
  call void @llvm.lifetime.start.p0(i64 4, ptr %14) #7
  %20 = load i32, ptr %13, align 4, !tbaa !8
  %21 = mul nsw i32 3, %20
  store i32 %21, ptr %14, align 4, !tbaa !8
  call void @llvm.lifetime.start.p0(i64 4, ptr %15) #7
  %22 = load i32, ptr %13, align 4, !tbaa !8
  %23 = mul nsw i32 %22, 4
  store i32 %23, ptr %15, align 4, !tbaa !8
  %24 = load i32, ptr %8, align 4, !tbaa !8
  %25 = sub nsw i32 %24, 1
  store i32 %25, ptr %10, align 4, !tbaa !8
  br label %26

26:                                               ; preds = %70, %4
  %27 = load i32, ptr %10, align 4, !tbaa !8
  %28 = icmp sge i32 %27, 0
  br i1 %28, label %29, label %74

29:                                               ; preds = %26
  store i32 0, ptr %11, align 4, !tbaa !8
  br label %30

30:                                               ; preds = %66, %29
  %31 = load i32, ptr %11, align 4, !tbaa !8
  %32 = load i32, ptr %13, align 4, !tbaa !8
  %33 = icmp slt i32 %31, %32
  br i1 %33, label %34, label %69

34:                                               ; preds = %30
  %35 = load ptr, ptr %6, align 8, !tbaa !3
  %36 = load i32, ptr %10, align 4, !tbaa !8
  %37 = load i32, ptr %11, align 4, !tbaa !8
  %38 = sub nsw i32 %36, %37
  %39 = sext i32 %38 to i64
  %40 = getelementptr inbounds i64, ptr %35, i64 %39
  %41 = load i64, ptr %40, align 8, !tbaa !18
  %42 = load ptr, ptr %6, align 8, !tbaa !3
  %43 = load i32, ptr %10, align 4, !tbaa !8
  %44 = load i32, ptr %11, align 4, !tbaa !8
  %45 = sub nsw i32 %43, %44
  %46 = load i32, ptr %14, align 4, !tbaa !8
  %47 = sub nsw i32 %45, %46
  %48 = sext i32 %47 to i64
  %49 = getelementptr inbounds i64, ptr %42, i64 %48
  %50 = load i64, ptr %49, align 8, !tbaa !18
  %51 = call i32 @CompareWords(i64 noundef %41, i64 noundef %50)
  store i32 %51, ptr %12, align 4, !tbaa !8
  %52 = load i32, ptr %12, align 4, !tbaa !8
  %53 = icmp eq i32 %52, 0
  br i1 %53, label %54, label %55

54:                                               ; preds = %34
  br label %66

55:                                               ; preds = %34
  %56 = load i32, ptr %12, align 4, !tbaa !8
  %57 = icmp eq i32 %56, -1
  br i1 %57, label %58, label %62

58:                                               ; preds = %55
  %59 = load i32, ptr %10, align 4, !tbaa !8
  %60 = add nsw i32 %59, 1
  %61 = load ptr, ptr %9, align 8, !tbaa !12
  store i32 %60, ptr %61, align 4, !tbaa !8
  store i32 0, ptr %5, align 4
  store i32 1, ptr %16, align 4
  br label %76

62:                                               ; preds = %55
  %63 = load i32, ptr %10, align 4, !tbaa !8
  %64 = add nsw i32 %63, 1
  %65 = load ptr, ptr %9, align 8, !tbaa !12
  store i32 %64, ptr %65, align 4, !tbaa !8
  store i32 3, ptr %5, align 4
  store i32 1, ptr %16, align 4
  br label %76

66:                                               ; preds = %54
  %67 = load i32, ptr %11, align 4, !tbaa !8
  %68 = add nsw i32 %67, 1
  store i32 %68, ptr %11, align 4, !tbaa !8
  br label %30, !llvm.loop !31

69:                                               ; preds = %30
  br label %70

70:                                               ; preds = %69
  %71 = load i32, ptr %15, align 4, !tbaa !8
  %72 = load i32, ptr %10, align 4, !tbaa !8
  %73 = sub nsw i32 %72, %71
  store i32 %73, ptr %10, align 4, !tbaa !8
  br label %26, !llvm.loop !32

74:                                               ; preds = %26
  %75 = load ptr, ptr %9, align 8, !tbaa !12
  store i32 0, ptr %75, align 4, !tbaa !8
  store i32 0, ptr %5, align 4
  store i32 1, ptr %16, align 4
  br label %76

76:                                               ; preds = %74, %62, %58
  call void @llvm.lifetime.end.p0(i64 4, ptr %15) #7
  call void @llvm.lifetime.end.p0(i64 4, ptr %14) #7
  call void @llvm.lifetime.end.p0(i64 4, ptr %13) #7
  call void @llvm.lifetime.end.p0(i64 4, ptr %12) #7
  call void @llvm.lifetime.end.p0(i64 4, ptr %11) #7
  call void @llvm.lifetime.end.p0(i64 4, ptr %10) #7
  %77 = load i32, ptr %5, align 4
  ret i32 %77
}