; Function Attrs: nofree norecurse nosync nounwind memory(argmem: readwrite) uwtable
define range(i32 0, 4) i32 @minTemp0_fast_moreThen5(ptr noundef readonly captures(none) %0, i32 noundef %1, i32 noundef %2, ptr noundef writeonly captures(none) %3) local_unnamed_addr #5 {
  %5 = add nsw i32 %1, -6
  %.neg27 = shl i32 -3, %5
  %.neg = shl i32 -4, %5
  %6 = icmp slt i32 %2, 1
  %.not = icmp eq i32 %5, 31
  %or.cond = select i1 %6, i1 true, i1 %.not
  br i1 %or.cond, label %._crit_edge32, label %.preheader.us.preheader

.preheader.us.preheader:                          ; preds = %4
  %7 = shl nuw i32 1, %5
  %8 = add nsw i32 %2, -1
  %smax = tail call i32 @llvm.smax.i32(i32 %7, i32 1)
  %wide.trip.count = zext nneg i32 %smax to i64
  br label %.preheader.us

.preheader.us:                                    ; preds = %.preheader.us.preheader, %._crit_edge.us
  %.02431.us = phi i32 [ %20, %._crit_edge.us ], [ %8, %.preheader.us.preheader ]
  %9 = zext nneg i32 %.02431.us to i64
  br label %10

10:                                               ; preds = %.preheader.us, %19
  %indvars.iv = phi i64 [ 0, %.preheader.us ], [ %indvars.iv.next, %19 ]
  %11 = sub nsw i64 %9, %indvars.iv
  %12 = getelementptr inbounds i64, ptr %0, i64 %11
  %13 = load i64, ptr %12, align 8, !tbaa !11
  %14 = trunc nsw i64 %11 to i32
  %15 = add i32 %.neg27, %14
  %16 = sext i32 %15 to i64
  %17 = getelementptr inbounds i64, ptr %0, i64 %16
  %18 = load i64, ptr %17, align 8, !tbaa !11
  %.0.i.us = tail call range(i32 -1, 2) i32 @llvm.ucmp.i32.i64(i64 %13, i64 %18)
  switch i32 %.0.i.us, label %.split.us [
    i32 0, label %19
    i32 -1, label %.split34.us
  ]

19:                                               ; preds = %10
  %indvars.iv.next = add nuw nsw i64 %indvars.iv, 1
  %exitcond.not = icmp eq i64 %indvars.iv.next, %wide.trip.count
  br i1 %exitcond.not, label %._crit_edge.us, label %10, !llvm.loop !24

._crit_edge.us:                                   ; preds = %19
  %20 = add i32 %.02431.us, %.neg
  %21 = icmp sgt i32 %20, -1
  br i1 %21, label %.preheader.us, label %._crit_edge32, !llvm.loop !25

.split34.us:                                      ; preds = %10
  %22 = add nuw nsw i32 %.02431.us, 1
  br label %._crit_edge32

.split.us:                                        ; preds = %10
  %23 = add nuw nsw i32 %.02431.us, 1
  br label %._crit_edge32

._crit_edge32:                                    ; preds = %._crit_edge.us, %4, %.split.us, %.split34.us
  %.sink = phi i32 [ %23, %.split.us ], [ %22, %.split34.us ], [ 0, %4 ], [ 0, %._crit_edge.us ]
  %.0 = phi i32 [ 3, %.split.us ], [ 0, %.split34.us ], [ 0, %4 ], [ 0, %._crit_edge.us ]
  store i32 %.sink, ptr %3, align 4, !tbaa !6
  ret i32 %.0
}